target datalayout = "e-m:e-p270:32:32-p271:32:32-p272:64:64-i64:64-i128:128-f80:128-n8:16:32:64-S128"
target triple = "x86_64-pc-linux-gnu"

@_ZZL17BrotliReverseBitsmtE4kLut = internal constant [16 x i64] [i64 0, i64 8, i64 4, i64 12, i64 2, i64 10, i64 6, i64 14, i64 1, i64 9, i64 5, i64 13, i64 3, i64 11, i64 7, i64 15], align 16

; Function Attrs: mustprogress nounwind uwtable
define internal noundef zeroext i16 @_ZL17BrotliReverseBitsmt(i64 noundef %0, i16 noundef zeroext %1) #0 {
  %3 = alloca i64, align 8
  %4 = alloca i16, align 2
  %5 = alloca i64, align 8
  %6 = alloca i64, align 8
  store i64 %0, ptr %3, align 8, !tbaa !22
  store i16 %1, ptr %4, align 2, !tbaa !26
  call void @llvm.lifetime.start.p0(i64 8, ptr %5) #7
  %7 = load i16, ptr %4, align 2, !tbaa !26
  %8 = zext i16 %7 to i32
  %9 = and i32 %8, 15
  %10 = sext i32 %9 to i64
  %11 = getelementptr inbounds [16 x i64], ptr @_ZZL17BrotliReverseBitsmtE4kLut, i64 0, i64 %10
  %12 = load i64, ptr %11, align 8, !tbaa !22
  store i64 %12, ptr %5, align 8, !tbaa !22
  call void @llvm.lifetime.start.p0(i64 8, ptr %6) #7
  store i64 4, ptr %6, align 8, !tbaa !22
  br label %13

13:                                               ; preds = %32, %2
  %14 = load i64, ptr %6, align 8, !tbaa !22
  %15 = load i64, ptr %3, align 8, !tbaa !22
  %16 = icmp ult i64 %14, %15
  br i1 %16, label %17, label %35

17:                                               ; preds = %13
  %18 = load i64, ptr %5, align 8, !tbaa !22
  %19 = shl i64 %18, 4
  store i64 %19, ptr %5, align 8, !tbaa !22
  %20 = load i16, ptr %4, align 2, !tbaa !26
  %21 = zext i16 %20 to i32
  %22 = ashr i32 %21, 4
  %23 = trunc i32 %22 to i16
  store i16 %23, ptr %4, align 2, !tbaa !26
  %24 = load i16, ptr %4, align 2, !tbaa !26
  %25 = zext i16 %24 to i32
  %26 = and i32 %25, 15
  %27 = sext i32 %26 to i64
  %28 = getelementptr inbounds [16 x i64], ptr @_ZZL17BrotliReverseBitsmtE4kLut, i64 0, i64 %27
  %29 = load i64, ptr %28, align 8, !tbaa !22
  %30 = load i64, ptr %5, align 8, !tbaa !22
  %31 = or i64 %30, %29
  store i64 %31, ptr %5, align 8, !tbaa !22
  br label %32

32:                                               ; preds = %17
  %33 = load i64, ptr %6, align 8, !tbaa !22
  %34 = add i64 %33, 4
  store i64 %34, ptr %6, align 8, !tbaa !22
  br label %13, !llvm.loop !60

35:                                               ; preds = %13
  %36 = load i64, ptr %3, align 8, !tbaa !22
  %37 = sub i64 0, %36
  %38 = and i64 %37, 3
  %39 = load i64, ptr %5, align 8, !tbaa !22
  %40 = lshr i64 %39, %38
  store i64 %40, ptr %5, align 8, !tbaa !22
  %41 = load i64, ptr %5, align 8, !tbaa !22
  %42 = trunc i64 %41 to i16
  call void @llvm.lifetime.end.p0(i64 8, ptr %6) #7
  call void @llvm.lifetime.end.p0(i64 8, ptr %5) #7
  ret i16 %42
}

; Function Attrs: mustprogress uwtable
define void @_ZN13duckdb_brotli31BrotliConvertBitDepthsToSymbolsEPKhmPt(ptr noundef %0, i64 noundef %1, ptr noundef %2) #2 {
  %4 = alloca ptr, align 8
  %5 = alloca i64, align 8
  %6 = alloca ptr, align 8
  %7 = alloca [16 x i16], align 16
  %8 = alloca [16 x i16], align 16
  %9 = alloca i64, align 8
  %10 = alloca i32, align 4
  store ptr %0, ptr %4, align 8, !tbaa !10
  store i64 %1, ptr %5, align 8, !tbaa !22
  store ptr %2, ptr %6, align 8, !tbaa !55
  call void @llvm.lifetime.start.p0(i64 32, ptr %7) #7
  call void @llvm.memset.p0.i64(ptr align 16 %7, i8 0, i64 32, i1 false)
  call void @llvm.lifetime.start.p0(i64 32, ptr %8) #7
  call void @llvm.lifetime.start.p0(i64 8, ptr %9) #7
  call void @llvm.lifetime.start.p0(i64 4, ptr %10) #7
  store i32 0, ptr %10, align 4, !tbaa !3
  store i64 0, ptr %9, align 8, !tbaa !22
  br label %11

11:                                               ; preds = %24, %3
  %12 = load i64, ptr %9, align 8, !tbaa !22
  %13 = load i64, ptr %5, align 8, !tbaa !22
  %14 = icmp ult i64 %12, %13
  br i1 %14, label %15, label %27

15:                                               ; preds = %11
  %16 = load ptr, ptr %4, align 8, !tbaa !10
  %17 = load i64, ptr %9, align 8, !tbaa !22
  %18 = getelementptr inbounds nuw i8, ptr %16, i64 %17
  %19 = load i8, ptr %18, align 1, !tbaa !18
  %20 = zext i8 %19 to i64
  %21 = getelementptr inbounds nuw [16 x i16], ptr %7, i64 0, i64 %20
  %22 = load i16, ptr %21, align 2, !tbaa !26
  %23 = add i16 %22, 1
  store i16 %23, ptr %21, align 2, !tbaa !26
  br label %24

24:                                               ; preds = %15
  %25 = load i64, ptr %9, align 8, !tbaa !22
  %26 = add i64 %25, 1
  store i64 %26, ptr %9, align 8, !tbaa !22
  br label %11, !llvm.loop !57

27:                                               ; preds = %11
  %28 = getelementptr inbounds [16 x i16], ptr %7, i64 0, i64 0
  store i16 0, ptr %28, align 16, !tbaa !26
  %29 = getelementptr inbounds [16 x i16], ptr %8, i64 0, i64 0
  store i16 0, ptr %29, align 16, !tbaa !26
  store i64 1, ptr %9, align 8, !tbaa !22
  br label %30

30:                                               ; preds = %46, %27
  %31 = load i64, ptr %9, align 8, !tbaa !22
  %32 = icmp ult i64 %31, 16
  br i1 %32, label %33, label %49

33:                                               ; preds = %30
  %34 = load i32, ptr %10, align 4, !tbaa !3
  %35 = load i64, ptr %9, align 8, !tbaa !22
  %36 = sub i64 %35, 1
  %37 = getelementptr inbounds nuw [16 x i16], ptr %7, i64 0, i64 %36
  %38 = load i16, ptr %37, align 2, !tbaa !26
  %39 = zext i16 %38 to i32
  %40 = add nsw i32 %34, %39
  %41 = shl i32 %40, 1
  store i32 %41, ptr %10, align 4, !tbaa !3
  %42 = load i32, ptr %10, align 4, !tbaa !3
  %43 = trunc i32 %42 to i16
  %44 = load i64, ptr %9, align 8, !tbaa !22
  %45 = getelementptr inbounds nuw [16 x i16], ptr %8, i64 0, i64 %44
  store i16 %43, ptr %45, align 2, !tbaa !26
  br label %46

46:                                               ; preds = %33
  %47 = load i64, ptr %9, align 8, !tbaa !22
  %48 = add i64 %47, 1
  store i64 %48, ptr %9, align 8, !tbaa !22
  br label %30, !llvm.loop !58

49:                                               ; preds = %30
  store i64 0, ptr %9, align 8, !tbaa !22
  br label %50

50:                                               ; preds = %79, %49
  %51 = load i64, ptr %9, align 8, !tbaa !22
  %52 = load i64, ptr %5, align 8, !tbaa !22
  %53 = icmp ult i64 %51, %52
  br i1 %53, label %54, label %82

54:                                               ; preds = %50
  %55 = load ptr, ptr %4, align 8, !tbaa !10
  %56 = load i64, ptr %9, align 8, !tbaa !22
  %57 = getelementptr inbounds nuw i8, ptr %55, i64 %56
  %58 = load i8, ptr %57, align 1, !tbaa !18
  %59 = icmp ne i8 %58, 0
  br i1 %59, label %60, label %78

60:                                               ; preds = %54
  %61 = load ptr, ptr %4, align 8, !tbaa !10
  %62 = load i64, ptr %9, align 8, !tbaa !22
  %63 = getelementptr inbounds nuw i8, ptr %61, i64 %62
  %64 = load i8, ptr %63, align 1, !tbaa !18
  %65 = zext i8 %64 to i64
  %66 = load ptr, ptr %4, align 8, !tbaa !10
  %67 = load i64, ptr %9, align 8, !tbaa !22
  %68 = getelementptr inbounds nuw i8, ptr %66, i64 %67
  %69 = load i8, ptr %68, align 1, !tbaa !18
  %70 = zext i8 %69 to i64
  %71 = getelementptr inbounds nuw [16 x i16], ptr %8, i64 0, i64 %70
  %72 = load i16, ptr %71, align 2, !tbaa !26
  %73 = add i16 %72, 1
  store i16 %73, ptr %71, align 2, !tbaa !26
  %74 = call noundef zeroext i16 @_ZL17BrotliReverseBitsmt(i64 noundef %65, i16 noundef zeroext %72)
  %75 = load ptr, ptr %6, align 8, !tbaa !55
  %76 = load i64, ptr %9, align 8, !tbaa !22
  %77 = getelementptr inbounds nuw i16, ptr %75, i64 %76
  store i16 %74, ptr %77, align 2, !tbaa !26
  br label %78

78:                                               ; preds = %60, %54
  br label %79

79:                                               ; preds = %78
  %80 = load i64, ptr %9, align 8, !tbaa !22
  %81 = add i64 %80, 1
  store i64 %81, ptr %9, align 8, !tbaa !22
  br label %50, !llvm.loop !59

82:                                               ; preds = %50
  call void @llvm.lifetime.end.p0(i64 4, ptr %10) #7
  call void @llvm.lifetime.end.p0(i64 8, ptr %9) #7
  call void @llvm.lifetime.end.p0(i64 32, ptr %8) #7
  call void @llvm.lifetime.end.p0(i64 32, ptr %7) #7
  ret void
}