; Function Attrs: mustprogress nofree norecurse nosync nounwind memory(argmem: readwrite) uwtable
define void @_ZN13duckdb_brotli31BrotliConvertBitDepthsToSymbolsEPKhmPt(ptr noundef readonly captures(none) %0, i64 noundef %1, ptr noundef writeonly captures(none) %2) local_unnamed_addr #0 {
  %4 = alloca [16 x i16], align 16
  %5 = alloca [16 x i16], align 16
  call void @llvm.lifetime.start.p0(i64 32, ptr nonnull %4) #4
  call void @llvm.memset.p0.i64(ptr noundef nonnull align 16 dereferenceable(32) %4, i8 0, i64 32, i1 false)
  call void @llvm.lifetime.start.p0(i64 32, ptr nonnull %5) #4
  %.not30 = icmp eq i64 %1, 0
  br i1 %.not30, label %._crit_edge, label %.lr.ph

.lr.ph:                                           ; preds = %3, %.lr.ph
  %.02124 = phi i64 [ %12, %.lr.ph ], [ 0, %3 ]
  %6 = getelementptr inbounds nuw i8, ptr %0, i64 %.02124
  %7 = load i8, ptr %6, align 1, !tbaa !13
  %8 = zext i8 %7 to i64
  %9 = getelementptr inbounds nuw [16 x i16], ptr %4, i64 0, i64 %8
  %10 = load i16, ptr %9, align 2, !tbaa !43
  %11 = add i16 %10, 1
  store i16 %11, ptr %9, align 2, !tbaa !43
  %12 = add nuw i64 %.02124, 1
  %exitcond.not = icmp eq i64 %12, %1
  br i1 %exitcond.not, label %._crit_edge, label %.lr.ph, !llvm.loop !44

._crit_edge:                                      ; preds = %.lr.ph, %3
  store i16 0, ptr %4, align 16, !tbaa !43
  br label %13

.preheader:                                       ; preds = %13
  br i1 %.not30, label %._crit_edge29, label %.lr.ph28

13:                                               ; preds = %._crit_edge, %13
  %.026 = phi i16 [ 0, %._crit_edge ], [ %18, %13 ]
  %.125 = phi i64 [ 1, %._crit_edge ], [ %20, %13 ]
  %14 = add nsw i64 %.125, -1
  %15 = getelementptr inbounds nuw [16 x i16], ptr %4, i64 0, i64 %14
  %16 = load i16, ptr %15, align 2, !tbaa !43
  %17 = add i16 %16, %.026
  %18 = shl i16 %17, 1
  %19 = getelementptr inbounds nuw [16 x i16], ptr %5, i64 0, i64 %.125
  store i16 %18, ptr %19, align 2, !tbaa !43
  %20 = add nuw nsw i64 %.125, 1
  %exitcond32.not = icmp eq i64 %20, 16
  br i1 %exitcond32.not, label %.preheader, label %13, !llvm.loop !45

.lr.ph28:                                         ; preds = %.preheader, %47
  %.227 = phi i64 [ %48, %47 ], [ 0, %.preheader ]
  %21 = getelementptr inbounds nuw i8, ptr %0, i64 %.227
  %22 = load i8, ptr %21, align 1, !tbaa !13
  %.not = icmp eq i8 %22, 0
  br i1 %.not, label %47, label %23

23:                                               ; preds = %.lr.ph28
  %24 = zext i8 %22 to i64
  %25 = getelementptr inbounds nuw [16 x i16], ptr %5, i64 0, i64 %24
  %26 = load i16, ptr %25, align 2, !tbaa !43
  %27 = add i16 %26, 1
  store i16 %27, ptr %25, align 2, !tbaa !43
  %28 = and i16 %26, 15
  %29 = zext nneg i16 %28 to i64
  %30 = getelementptr inbounds nuw [16 x i64], ptr @_ZZL17BrotliReverseBitsmtE4kLut, i64 0, i64 %29
  %31 = load i64, ptr %30, align 8, !tbaa !19
  %32 = icmp ugt i8 %22, 4
  br i1 %32, label %.lr.ph.i, label %_ZL17BrotliReverseBitsmt.exit

.lr.ph.i:                                         ; preds = %23, %.lr.ph.i
  %.016.i = phi i64 [ %40, %.lr.ph.i ], [ 4, %23 ]
  %.01115.i = phi i64 [ %39, %.lr.ph.i ], [ %31, %23 ]
  %.01214.i = phi i16 [ %34, %.lr.ph.i ], [ %26, %23 ]
  %33 = shl i64 %.01115.i, 4
  %34 = lshr i16 %.01214.i, 4
  %35 = and i16 %34, 15
  %36 = zext nneg i16 %35 to i64
  %37 = getelementptr inbounds nuw [16 x i64], ptr @_ZZL17BrotliReverseBitsmtE4kLut, i64 0, i64 %36
  %38 = load i64, ptr %37, align 8, !tbaa !19
  %39 = or i64 %38, %33
  %40 = add nuw nsw i64 %.016.i, 4
  %41 = icmp samesign ult i64 %40, %24
  br i1 %41, label %.lr.ph.i, label %_ZL17BrotliReverseBitsmt.exit, !llvm.loop !46

_ZL17BrotliReverseBitsmt.exit:                    ; preds = %.lr.ph.i, %23
  %.011.lcssa.i = phi i64 [ %31, %23 ], [ %39, %.lr.ph.i ]
  %42 = sub nsw i64 0, %24
  %43 = and i64 %42, 3
  %44 = lshr i64 %.011.lcssa.i, %43
  %45 = trunc i64 %44 to i16
  %46 = getelementptr inbounds nuw i16, ptr %2, i64 %.227
  store i16 %45, ptr %46, align 2, !tbaa !43
  br label %47

47:                                               ; preds = %.lr.ph28, %_ZL17BrotliReverseBitsmt.exit
  %48 = add nuw i64 %.227, 1
  %exitcond33.not = icmp eq i64 %48, %1
  br i1 %exitcond33.not, label %._crit_edge29, label %.lr.ph28, !llvm.loop !47

._crit_edge29:                                    ; preds = %47, %.preheader
  call void @llvm.lifetime.end.p0(i64 32, ptr nonnull %5) #4
  call void @llvm.lifetime.end.p0(i64 32, ptr nonnull %4) #4
  ret void
}